; ModuleID = 'bench/g2o/original/robust_kernel.ll'
source_filename = "bench/g2o/original/robust_kernel.ll"
target datalayout = "e-m:e-p270:32:32-p271:32:32-p272:64:64-i64:64-i128:128-f80:128-n8:16:32:64-S128"
target triple = "x86_64-pc-linux-gnu"

$_ZN3g2o12RobustKernelD2Ev = comdat any

$_ZN3g2o12RobustKernelD0Ev = comdat any

@_ZTVN3g2o12RobustKernelE = unnamed_addr constant { [6 x ptr] } { [6 x ptr] [ptr null, ptr @_ZTIN3g2o12RobustKernelE, ptr @_ZN3g2o12RobustKernelD2Ev, ptr @_ZN3g2o12RobustKernelD0Ev, ptr @__cxa_pure_virtual, ptr @_ZN3g2o12RobustKernel8setDeltaEd] }, align 8
@_ZTIN3g2o12RobustKernelE = constant { ptr, ptr } { ptr getelementptr inbounds (ptr, ptr @_ZTVN10__cxxabiv117__class_type_infoE, i64 2), ptr @_ZTSN3g2o12RobustKernelE }, align 8
@_ZTVN10__cxxabiv117__class_type_infoE = external global [0 x ptr]
@_ZTSN3g2o12RobustKernelE = constant [21 x i8] c"N3g2o12RobustKernelE\00", align 1
@llvm.global_ctors = appending global [0 x { i32, ptr, ptr }] zeroinitializer

; Function Attrs: mustprogress nofree norecurse nosync nounwind willreturn memory(argmem: write) uwtable
define void @_ZN3g2o12RobustKernelC2Ev(ptr noundef nonnull writeonly align 8 captures(none) dereferenceable(16) initializes((0, 16)) %0) unnamed_addr #0 align 2 {
  store ptr getelementptr inbounds nuw inrange(-16, 32) (i8, ptr @_ZTVN3g2o12RobustKernelE, i64 16), ptr %0, align 8, !tbaa !3
  %2 = getelementptr inbounds nuw i8, ptr %0, i64 8
  store double 1.000000e+00, ptr %2, align 8, !tbaa !6
  ret void
}

; Function Attrs: mustprogress nofree norecurse nosync nounwind willreturn memory(argmem: write) uwtable
define void @_ZN3g2o12RobustKernelC2Ed(ptr noundef nonnull writeonly align 8 captures(none) dereferenceable(16) initializes((0, 16)) %0, double noundef %1) unnamed_addr #0 align 2 {
  store ptr getelementptr inbounds nuw inrange(-16, 32) (i8, ptr @_ZTVN3g2o12RobustKernelE, i64 16), ptr %0, align 8, !tbaa !3
  %3 = getelementptr inbounds nuw i8, ptr %0, i64 8
  store double %1, ptr %3, align 8, !tbaa !6
  ret void
}

; Function Attrs: mustprogress nofree norecurse nosync nounwind willreturn memory(argmem: write) uwtable
define void @_ZN3g2o12RobustKernel8setDeltaEd(ptr noundef nonnull writeonly align 8 captures(none) dereferenceable(16) initializes((8, 16)) %0, double noundef %1) unnamed_addr #0 align 2 {
  %3 = getelementptr inbounds nuw i8, ptr %0, i64 8
  store double %1, ptr %3, align 8, !tbaa !6
  ret void
}

; Function Attrs: mustprogress nounwind uwtable
define linkonce_odr void @_ZN3g2o12RobustKernelD2Ev(ptr noundef nonnull align 8 dereferenceable(16) %0) unnamed_addr #1 comdat align 2 {
  ret void
}

; Function Attrs: mustprogress nounwind uwtable
define linkonce_odr void @_ZN3g2o12RobustKernelD0Ev(ptr noundef nonnull align 8 dereferenceable(16) %0) unnamed_addr #1 comdat align 2 {
  tail call void @llvm.trap() #3
  unreachable
}

declare void @__cxa_pure_virtual() unnamed_addr

; Function Attrs: cold noreturn nounwind memory(inaccessiblemem: write)
declare void @llvm.trap() #2


!llvm.module.flags = !{!0, !1, !2}

!0 = !{i32 1, !"wchar_size", i32 4}
!1 = !{i32 8, !"PIC Level", i32 2}
!2 = !{i32 7, !"uwtable", i32 2}
!3 = !{!4, !4, i64 0}
!4 = !{!"vtable pointer", !5, i64 0}
!5 = !{!"Simple C++ TBAA"}
!6 = !{!7, !8, i64 8}
!7 = !{!"_ZTSN3g2o12RobustKernelE", !8, i64 8}
!8 = !{!"double", !9, i64 0}
!9 = !{!"omnipotent char", !5, i64 0}
